target datalayout = "e-m:e-p270:32:32-p271:32:32-p272:64:64-i64:64-i128:128-f80:128-n8:16:32:64-S128"
target triple = "x86_64-pc-linux-gnu"

%struct.strbuf = type { i64, i64, ptr }
%struct.json_writer = type { %struct.strbuf, %struct.strbuf, i8 }

; Function Attrs: nounwind uwtable
define dso_local void @jw_array_string(ptr noundef %0, ptr noundef %1) #0 {
  %3 = alloca ptr, align 8
  %4 = alloca ptr, align 8
  store ptr %0, ptr %3, align 8, !tbaa !4
  store ptr %1, ptr %4, align 8, !tbaa !12
  %5 = load ptr, ptr %3, align 8, !tbaa !4
  call void @array_common(ptr noundef %5)
  %6 = load ptr, ptr %3, align 8, !tbaa !4
  %7 = getelementptr inbounds nuw %struct.json_writer, ptr %6, i32 0, i32 0
  %8 = load ptr, ptr %4, align 8, !tbaa !12
  call void @append_quoted_string(ptr noundef %7, ptr noundef %8)
  ret void
}

; Function Attrs: nounwind uwtable
define dso_local void @jw_array_argv(ptr noundef %0, ptr noundef %1) #0 {
  %3 = alloca ptr, align 8
  %4 = alloca ptr, align 8
  store ptr %0, ptr %3, align 8, !tbaa !4
  store ptr %1, ptr %4, align 8, !tbaa !27
  br label %5

5:                                                ; preds = %9, %2
  %6 = load ptr, ptr %4, align 8, !tbaa !27
  %7 = load ptr, ptr %6, align 8, !tbaa !12
  %8 = icmp ne ptr %7, null
  br i1 %8, label %9, label %14

9:                                                ; preds = %5
  %10 = load ptr, ptr %3, align 8, !tbaa !4
  %11 = load ptr, ptr %4, align 8, !tbaa !27
  %12 = getelementptr inbounds nuw ptr, ptr %11, i32 1
  store ptr %12, ptr %4, align 8, !tbaa !27
  %13 = load ptr, ptr %11, align 8, !tbaa !12
  call void @jw_array_string(ptr noundef %10, ptr noundef %13)
  br label %5, !llvm.loop !30

14:                                               ; preds = %5
  ret void
}