; Function Attrs: nounwind uwtable
define dso_local void @jw_array_argv(ptr noundef %0, ptr noundef readonly captures(none) %1) local_unnamed_addr #3 {
  %3 = load ptr, ptr %1, align 8, !tbaa !24
  %.not4 = icmp eq ptr %3, null
  br i1 %.not4, label %._crit_edge, label %.lr.ph

.lr.ph:                                           ; preds = %2, %.lr.ph
  %4 = phi ptr [ %6, %.lr.ph ], [ %3, %2 ]
  %.05 = phi ptr [ %5, %.lr.ph ], [ %1, %2 ]
  %5 = getelementptr inbounds nuw i8, ptr %.05, i64 8
  tail call fastcc void @array_common(ptr noundef %0)
  tail call fastcc void @append_quoted_string(ptr noundef %0, ptr noundef nonnull readonly %4)
  %6 = load ptr, ptr %5, align 8, !tbaa !24
  %.not = icmp eq ptr %6, null
  br i1 %.not, label %._crit_edge, label %.lr.ph, !llvm.loop !26

._crit_edge:                                      ; preds = %.lr.ph, %2
  ret void
}